Certificate Request:
    Data:
        Version: 1 (0x0)
        Subject: CN = dogbert
        Subject Public Key Info:
            Public Key Algorithm: rsaEncryption
                RSA Public-Key: (2048 bit)
                Modulus:
                    00:dd:2e:a5:9a:2c:72:8c:67:a6:7b:87:41:fa:de:
                    4a:fb:74:76:d5:d8:5f:2e:e8:32:fa:02:18:8e:7e:
                    73:1e:4a:00:aa:87:72:c6:c1:19:bd:95:ce:56:3c:
                    7d:4a:ee:03:5f:c1:17:2e:8a:b1:32:18:1a:47:35:
                    eb:4b:0e:ad:ec:ef:ed:34:0e:db:7f:84:52:e1:3f:
                    13:79:d8:27:27:90:86:9a:32:b5:98:70:99:b7:cb:
                    68:c8:22:d9:12:db:03:ff:44:e0:47:02:d4:c2:63:
                    8e:d0:59:2c:af:cd:e6:7e:a7:66:83:10:8b:c7:f2:
                    81:52:a5:60:0d:2c:b6:c7:21:63:52:b2:ed:00:95:
                    24:9e:c4:77:a7:c2:a6:12:d3:b7:d7:a2:27:fe:4f:
                    8f:fb:5d:11:78:7c:1f:53:93:52:4c:97:66:8a:cf:
                    80:21:85:c7:67:8d:cc:d5:78:63:26:17:ef:d5:eb:
                    1d:68:c8:f5:ec:78:a6:10:0d:23:48:15:95:c3:ef:
                    b5:b8:54:ae:b6:9b:61:70:ae:0b:43:c6:cb:2b:6c:
                    d9:c3:2b:3d:2c:db:94:77:9c:77:63:3b:fb:a5:61:
                    19:d8:df:d2:98:10:fb:f6:93:be:2d:67:eb:f2:df:
                    8e:16:7d:80:44:48:07:1e:b7:88:17:a1:ff:01:29:
                    8c:13
                Exponent: 65537 (0x10001)
        Attributes:
            a0:00
    Signature Algorithm: sha256WithRSAEncryption
         9f:68:75:69:b3:a8:d2:5f:f7:59:ac:23:41:8e:51:51:76:c3:
         cd:69:83:0b:78:0e:9b:08:4a:c4:0c:17:17:1c:3c:01:54:4c:
         2e:ea:c1:c8:50:ff:98:2e:40:81:0b:84:c0:c9:df:ef:07:35:
         b7:93:23:21:b1:a5:af:65:b1:23:a7:7a:6e:82:c1:fc:56:96:
         99:55:cc:ab:1a:53:ab:b8:f2:24:f8:e2:f7:1b:58:bb:89:38:
         ad:1f:be:2a:e6:a7:a8:98:ba:19:e7:2f:95:71:e7:61:a6:3b:
         3b:5e:19:aa:1c:a6:de:b4:82:c3:c7:46:ad:6f:46:c8:37:8a:
         21:50:c9:02:c6:e3:dc:32:b3:bd:17:70:3f:38:23:d1:9d:cd:
         6b:28:ea:99:6f:dc:fa:e2:64:cd:ca:d1:bc:20:18:b7:36:f1:
         bb:d2:63:37:2d:74:c2:b1:ed:f4:a4:26:3f:cb:52:e7:da:31:
         1d:04:70:cd:61:f1:78:e7:4c:55:08:d3:39:9b:ec:ed:36:7d:
         e1:58:37:ba:5e:11:7c:34:85:da:d6:8a:46:62:37:74:3d:3d:
         8c:77:ad:6e:0f:20:55:0a:b5:be:25:a6:63:75:ac:69:85:2e:
         fa:99:a9:05:12:e5:fc:a7:ec:84:2b:17:ed:53:bd:a1:b8:53:
         90:24:bd:1a
-----BEGIN CERTIFICATE REQUEST-----
MIICVzCCAT8CAQAwEjEQMA4GA1UEAwwHZG9nYmVydDCCASIwDQYJKoZIhvcNAQEB
BQADggEPADCCAQoCggEBAN0upZoscoxnpnuHQfreSvt0dtXYXy7oMvoCGI5+cx5K
AKqHcsbBGb2VzlY8fUruA1/BFy6KsTIYGkc160sOrezv7TQO23+EUuE/E3nYJyeQ
hpoytZhwmbfLaMgi2RLbA/9E4EcC1MJjjtBZLK/N5n6nZoMQi8fygVKlYA0stsch
Y1Ky7QCVJJ7Ed6fCphLTt9eiJ/5Pj/tdEXh8H1OTUkyXZorPgCGFx2eNzNV4YyYX
79XrHWjI9ex4phANI0gVlcPvtbhUrrabYXCuC0PGyyts2cMrPSzblHecd2M7+6Vh
Gdjf0pgQ+/aTvi1n6/LfjhZ9gERIBx63iBeh/wEpjBMCAwEAAaAAMA0GCSqGSIb3
DQEBCwUAA4IBAQCfaHVps6jSX/dZrCNBjlFRdsPNaYMLeA6bCErEDBcXHDwBVEwu
6sHIUP+YLkCBC4TAyd/vBzW3kyMhsaWvZbEjp3pugsH8VpaZVcyrGlOruPIk+OL3
G1i7iTitH74q5qeomLoZ5y+Vcedhpjs7XhmqHKbetILDx0atb0bIN4ohUMkCxuPc
MrO9F3A/OCPRnc1rKOqZb9z64mTNytG8IBi3NvG70mM3LXTCse30pCY/y1Ln2jEd
BHDNYfF450xVCNM5m+ztNn3hWDe6XhF8NIXa1opGYjd0PT2Md61uDyBVCrW+JaZj
daxphS76makFEuX8p+yEKxftU72huFOQJL0a
-----END CERTIFICATE REQUEST-----
