Certificate:
    Data:
        Version: 1 (0x0)
        Serial Number:
            3f:6a:46:a3:89:41:14:a4:0a:79:74:4b:e4:d6:7c:5d:9e:6e:4c:55
        Signature Algorithm: NULL
        Issuer: CN = dogbert
        Validity
            Not Before: Oct  1 04:14:31 2022 GMT
            Not After : Sep 30 04:14:31 2027 GMT
        Subject: CN = dogbert
        Subject Public Key Info:
            Public Key Algorithm: rsaEncryption
                RSA Public-Key: (2048 bit)
                Modulus:
                    00:dd:2e:a5:9a:2c:72:8c:67:a6:7b:87:41:fa:de:
                    4a:fb:74:76:d5:d8:5f:2e:e8:32:fa:02:18:8e:7e:
                    73:1e:4a:00:aa:87:72:c6:c1:19:bd:95:ce:56:3c:
                    7d:4a:ee:03:5f:c1:17:2e:8a:b1:32:18:1a:47:35:
                    eb:4b:0e:ad:ec:ef:ed:34:0e:db:7f:84:52:e1:3f:
                    13:79:d8:27:27:90:86:9a:32:b5:98:70:99:b7:cb:
                    68:c8:22:d9:12:db:03:ff:44:e0:47:02:d4:c2:63:
                    8e:d0:59:2c:af:cd:e6:7e:a7:66:83:10:8b:c7:f2:
                    81:52:a5:60:0d:2c:b6:c7:21:63:52:b2:ed:00:95:
                    24:9e:c4:77:a7:c2:a6:12:d3:b7:d7:a2:27:fe:4f:
                    8f:fb:5d:11:78:7c:1f:53:93:52:4c:97:66:8a:cf:
                    80:21:85:c7:67:8d:cc:d5:78:63:26:17:ef:d5:eb:
                    1d:68:c8:f5:ec:78:a6:10:0d:23:48:15:95:c3:ef:
                    b5:b8:54:ae:b6:9b:61:70:ae:0b:43:c6:cb:2b:6c:
                    d9:c3:2b:3d:2c:db:94:77:9c:77:63:3b:fb:a5:61:
                    19:d8:df:d2:98:10:fb:f6:93:be:2d:67:eb:f2:df:
                    8e:16:7d:80:44:48:07:1e:b7:88:17:a1:ff:01:29:
                    8c:13
                Exponent: 65537 (0x10001)
    Signature Algorithm: NULL
-----BEGIN CERTIFICATE-----
MIIDCDCCAfCgAwIBAgIUcSqaR8kxKciNDSmaOyzah3vszkIwDQYJKoZIhvcNAQEL
BQAwGDEWMBQGA1UEAwwNZG9nYmVydC5sb2NhbDAeFw0yMjEwMDEwNDE0MzFaFw0y
NzA5MzAwNDE0MzFaMBIxEDAOBgNVBAMMB2RvZ2JlcnQwggEiMA0GCSqGSIb3DQEB
AQUAA4IBDwAwggEKAoIBAQDdLqWaLHKMZ6Z7h0H63kr7dHbV2F8u6DL6AhiOfnMe
SgCqh3LGwRm9lc5WPH1K7gNfwRcuirEyGBpHNetLDq3s7+00Dtt/hFLhPxN52Ccn
kIaaMrWYcJm3y2jIItkS2wP/ROBHAtTCY47QWSyvzeZ+p2aDEIvH8oFSpWANLLbH
IWNSsu0AlSSexHenwqYS07fXoif+T4/7XRF4fB9Tk1JMl2aKz4AhhcdnjczVeGMm
F+/V6x1oyPXseKYQDSNIFZXD77W4VK62m2FwrgtDxssrbNnDKz0s25R3nHdjO/ul
YRnY39KYEPv2k74tZ+vy344WfYBESAcet4gXof8BKYwTAgMBAAGjUDBOMAwGA1Ud
EwEB/wQCMAAwHQYDVR0OBBYEFHqXBbthpqVOgTLY/Fo4cT0ZdrQ3MB8GA1UdIwQY
MBaAFG7IxA6/OMDcZg0cCMcFG1J2HW5OMA0GCSqGSIb3DQEBCwUAA4IBAQAfhd82
733HfV1hrZx1JAR8d7Hwuqm72fRvhYd9Nq/vA8u0t8dUNQ0p4IPaWScA579lZf0i
AhelMropfbma8dEbaqBNKr8x/7rbxlyq3PJswcVL0+gWnVNMJGrtthC3fwTFLw+o
mCdNhruZ2Yq/v27IVaJYJT+jbBnUC6s29Dthkyq3P1CvbAljH8n6WwzdbWz29fNr
2TCnAUJ69fKVhAe1pU6ZS9mowc/Csl9reAi4phX3hOmzCdciFBr6wd9G1YvzTxDq
qBQoVbSlZLSRObnqIqPrlnsUDnjHUvY1E89W2w8s416aGUe7j9Tye3jLe9kjtuet
aLcWUBm7L1SJ1w14
-----END CERTIFICATE-----
