Certificate Request:
    Data:
        Version: 1 (0x0)
        Subject: CN = dogbert
        Subject Public Key Info:
            Public Key Algorithm: rsaEncryption
                RSA Public-Key: (2048 bit)
                Modulus:
                    00:a1:51:df:65:ff:f6:43:c0:0a:07:4e:99:9d:80:
                    27:84:a3:bd:5b:62:35:29:aa:f7:f5:46:43:eb:12:
                    cb:ea:91:03:e7:fa:60:3d:ec:41:7e:a5:93:23:78:
                    03:ec:c8:f5:70:a6:c7:95:ff:43:7b:68:8c:d3:cf:
                    e7:1d:9c:ca:4d:1b:e7:e9:30:42:d8:b2:be:72:a4:
                    ea:7c:44:db:81:d0:42:9f:03:0f:e8:54:c5:cd:6f:
                    fc:90:a1:5d:61:66:aa:52:4d:df:f3:f7:2b:42:af:
                    4e:43:3a:bc:6a:f4:2d:fc:be:52:a3:2b:d0:be:10:
                    3f:5b:cf:d0:75:f1:91:5a:58:0b:e5:92:90:43:ec:
                    e4:5e:73:eb:0d:7d:85:5c:60:7e:c6:8e:a7:9d:43:
                    d4:f2:46:66:82:e9:06:f3:60:b8:69:0a:a4:5e:76:
                    4e:02:0f:7c:d5:72:dc:69:7f:8e:49:d7:5b:37:e3:
                    d2:21:eb:a5:cd:53:70:23:20:f8:74:c4:b9:6a:e3:
                    99:18:32:79:e2:de:0e:61:c3:52:50:84:ae:5e:63:
                    93:f9:a8:fd:e8:0b:1d:97:7e:fa:c4:71:c2:cc:f7:
                    26:05:07:6a:c3:70:6a:9b:a0:89:bc:ce:d3:60:19:
                    b4:a6:97:0f:e6:b6:be:c4:0b:46:66:a4:b1:12:ad:
                    2d:2b
                Exponent: 65537 (0x10001)
        Attributes:
            a0:00
    Signature Algorithm: sha256WithRSAEncryption
         7b:fb:db:5c:dc:ca:09:9b:f7:97:33:bc:17:19:0e:14:b3:47:
         91:f2:22:42:f8:49:c0:3c:59:0d:77:16:a3:dd:b6:ae:71:4a:
         02:9c:63:54:52:e6:e1:b5:f8:f8:1d:f8:cc:5e:eb:0f:50:f2:
         8a:55:3f:58:a0:4b:21:db:da:47:83:cc:b8:46:7e:07:cb:df:
         be:9b:09:20:61:e3:60:71:4d:8c:fd:74:b1:62:4c:f2:31:e7:
         8e:07:8a:0b:47:4b:6c:9f:22:45:b4:76:2c:26:72:f2:bb:2d:
         fa:f2:c1:6c:84:56:86:31:12:9f:4a:bf:29:5e:ac:e1:ff:c3:
         65:e0:77:b0:5c:57:f1:51:8b:7d:cb:4d:94:2f:0b:a9:45:26:
         f0:6f:55:38:81:79:5d:18:53:64:54:11:27:f1:04:da:2e:cc:
         ac:02:72:6a:37:2d:37:76:8b:38:62:c1:89:fd:46:7f:19:a8:
         82:73:03:01:89:f1:c4:c6:a5:ad:f6:16:cb:9e:dd:f4:c2:27:
         3f:98:bf:c8:63:fc:81:b1:dc:07:5c:b4:38:96:bc:d9:4d:3b:
         bc:28:b5:ba:d9:3a:e8:9a:d0:45:1c:fc:4c:c4:b4:eb:2e:81:
         1a:67:75:6e:f3:12:37:30:10:52:0c:7b:c9:aa:1d:be:1d:d9:
         a4:4d:ae:75
-----BEGIN CERTIFICATE REQUEST-----
MIICVzCCAT8CAQAwEjEQMA4GA1UEAwwHZG9nYmVydDCCASIwDQYJKoZIhvcNAQEB
BQADggEPADCCAQoCggEBAKFR32X/9kPACgdOmZ2AJ4SjvVtiNSmq9/VGQ+sSy+qR
A+f6YD3sQX6lkyN4A+zI9XCmx5X/Q3tojNPP5x2cyk0b5+kwQtiyvnKk6nxE24HQ
Qp8DD+hUxc1v/JChXWFmqlJN3/P3K0KvTkM6vGr0Lfy+UqMr0L4QP1vP0HXxkVpY
C+WSkEPs5F5z6w19hVxgfsaOp51D1PJGZoLpBvNguGkKpF52TgIPfNVy3Gl/jknX
Wzfj0iHrpc1TcCMg+HTEuWrjmRgyeeLeDmHDUlCErl5jk/mo/egLHZd++sRxwsz3
JgUHasNwapugibzO02AZtKaXD+a2vsQLRmaksRKtLSsCAwEAAaAAMA0GCSqGSIb3
DQEBCwUAA4IBAQB7+9tc3MoJm/eXM7wXGQ4Us0eR8iJC+EnAPFkNdxaj3baucUoC
nGNUUubhtfj4HfjMXusPUPKKVT9YoEsh29pHg8y4Rn4Hy9++mwkgYeNgcU2M/XSx
YkzyMeeOB4oLR0tsnyJFtHYsJnLyuy368sFshFaGMRKfSr8pXqzh/8Nl4HewXFfx
UYt9y02ULwupRSbwb1U4gXldGFNkVBEn8QTaLsysAnJqNy03dos4YsGJ/UZ/GaiC
cwMBifHExqWt9hbLnt30wic/mL/IY/yBsdwHXLQ4lrzZTTu8KLW62TromtBFHPxM
xLTrLoEaZ3Vu8xI3MBBSDHvJqh2+HdmkTa51
-----END CERTIFICATE REQUEST-----
